#include <math.h>
#include <stdio.h>
#include <stdlib.h>
#include <string.h>
#include <iostream>
using namespace std;

//???????
//??????
//?????????????????
int main()
{
	char sen[101];						//????
	int len;							//??????
	cin.getline(sen,101,'\n');			//????
	len=strlen(sen);					//????
	for(int i=0;i<len;i++)				//i?????
		if(sen[i]==' ')					//?sen[i]???
		{
			int j=i+1;					//j?????
			while(sen[j]==' ')			//?j??????j+1??????????
				j++;
			for(int k=j;k<101;k++)		//???????????????
				sen[k-j+i+1]=sen[k];
		}
	cout<<sen;							//??
	return 0;
}